; Function Attrs: mustprogress uwtable
define internal void @_ZN2cv12cpu_baselineL9cvt16f16uEPKhmS2_mPhmNS_5Size_IiEEPv(ptr nocapture noundef readonly %0, i64 noundef %1, ptr nocapture readnone %2, i64 %3, ptr nocapture noundef writeonly %4, i64 noundef %5, i64 %6, ptr nocapture readnone %7) #5 personality ptr @__gxx_personality_v0 {
  %9 = alloca %"class.cv::utils::trace::details::Region", align 8
  call void @_ZN2cv5utils5trace7details6RegionC1ERKNS3_21LocationStaticStorageE(ptr noundef nonnull align 8 dereferenceable(12) %9, ptr noundef nonnull align 8 dereferenceable(32) @_ZZN2cv12cpu_baselineL9cvt16f16uEPKhmS2_mPhmNS_5Size_IiEEPvE25__cv_trace_location_fn257)
  %.sroa.2.0.extract.shift.i = lshr i64 %6, 32
  %.sroa.2.0.extract.trunc.i = trunc nuw i64 %.sroa.2.0.extract.shift.i to i32
  %10 = lshr i64 %1, 1
  %11 = lshr i64 %5, 1
  %12 = icmp sgt i32 %.sroa.2.0.extract.trunc.i, 0
  %.sroa.013.0.extract.trunc.i = trunc i64 %6 to i32
  %13 = icmp sgt i32 %.sroa.013.0.extract.trunc.i, 0
  %or.cond.i = and i1 %13, %12
  br i1 %or.cond.i, label %.preheader.us.preheader.i, label %_ZN2cv12cpu_baselineL5cvt1_INS_6hfloatEtNS_12hal_baseline5v_regIfLi4EEEEEvPKT_mPT0_mNS_5Size_IiEE.exit

.preheader.us.preheader.i:                        ; preds = %8
  %wide.trip.count.i = and i64 %6, 2147483647
  br label %.preheader.us.i

.preheader.us.i:                                  ; preds = %._crit_edge.us.i, %.preheader.us.preheader.i
  %.020.us.i = phi ptr [ %39, %._crit_edge.us.i ], [ %0, %.preheader.us.preheader.i ]
  %.01519.us.i = phi i32 [ %38, %._crit_edge.us.i ], [ 0, %.preheader.us.preheader.i ]
  %.01618.us.i = phi ptr [ %40, %._crit_edge.us.i ], [ %4, %.preheader.us.preheader.i ]
  br label %14

14:                                               ; preds = %_ZN2cvL13saturate_castItEET_NS_6hfloatE.exit.us.i, %.preheader.us.i
  %indvars.iv.i = phi i64 [ 0, %.preheader.us.i ], [ %indvars.iv.next.i, %_ZN2cvL13saturate_castItEET_NS_6hfloatE.exit.us.i ]
  %15 = getelementptr inbounds %"class.cv::hfloat", ptr %.020.us.i, i64 %indvars.iv.i
  %.sroa.0.0.copyload.us.i = load i16, ptr %15, align 2
  %16 = zext i16 %.sroa.0.0.copyload.us.i to i32
  %17 = shl nuw nsw i32 %16, 13
  %18 = and i32 %17, 268427264
  %19 = add nuw nsw i32 %18, 939524096
  %20 = and i32 %16, 31744
  switch i32 %20, label %_ZN2cvL13saturate_castItEET_NS_6hfloatE.exit.us.i [
    i32 31744, label %26
    i32 0, label %21
  ]

21:                                               ; preds = %14
  %22 = add nuw nsw i32 %18, 947912704
  %23 = bitcast i32 %22 to float
  %24 = fadd float %23, 0xBF10000000000000
  %25 = bitcast float %24 to i32
  br label %_ZN2cvL13saturate_castItEET_NS_6hfloatE.exit.us.i

26:                                               ; preds = %14
  %27 = or i32 %17, 1879048192
  br label %_ZN2cvL13saturate_castItEET_NS_6hfloatE.exit.us.i

_ZN2cvL13saturate_castItEET_NS_6hfloatE.exit.us.i: ; preds = %26, %21, %14
  %28 = phi i32 [ %27, %26 ], [ %25, %21 ], [ %19, %14 ]
  %.signext.i.i.us.i = sext i16 %.sroa.0.0.copyload.us.i to i32
  %29 = and i32 %.signext.i.i.us.i, -2147483648
  %30 = or i32 %28, %29
  %31 = insertelement <4 x i32> poison, i32 %30, i64 0
  %32 = bitcast <4 x i32> %31 to <4 x float>
  %33 = call noundef i32 @llvm.x86.sse.cvtss2si(<4 x float> %32)
  %34 = call i32 @llvm.smax.i32(i32 %33, i32 0)
  %35 = call i32 @llvm.umin.i32(i32 %34, i32 65535)
  %36 = trunc nuw i32 %35 to i16
  %37 = getelementptr inbounds i16, ptr %.01618.us.i, i64 %indvars.iv.i
  store i16 %36, ptr %37, align 2
  %indvars.iv.next.i = add nuw nsw i64 %indvars.iv.i, 1
  %exitcond.not.i = icmp eq i64 %indvars.iv.next.i, %wide.trip.count.i
  br i1 %exitcond.not.i, label %._crit_edge.us.i, label %14, !llvm.loop !50

._crit_edge.us.i:                                 ; preds = %_ZN2cvL13saturate_castItEET_NS_6hfloatE.exit.us.i
  %38 = add nuw nsw i32 %.01519.us.i, 1
  %39 = getelementptr inbounds %"class.cv::hfloat", ptr %.020.us.i, i64 %10
  %40 = getelementptr inbounds i16, ptr %.01618.us.i, i64 %11
  %exitcond24.not.i = icmp eq i32 %38, %.sroa.2.0.extract.trunc.i
  br i1 %exitcond24.not.i, label %_ZN2cv12cpu_baselineL5cvt1_INS_6hfloatEtNS_12hal_baseline5v_regIfLi4EEEEEvPKT_mPT0_mNS_5Size_IiEE.exit, label %.preheader.us.i, !llvm.loop !51

_ZN2cv12cpu_baselineL5cvt1_INS_6hfloatEtNS_12hal_baseline5v_regIfLi4EEEEEvPKT_mPT0_mNS_5Size_IiEE.exit: ; preds = %._crit_edge.us.i, %8
  %41 = getelementptr inbounds i8, ptr %9, i64 8
  %42 = load i32, ptr %41, align 8
  %.not.i = icmp eq i32 %42, 0
  br i1 %.not.i, label %_ZN2cv5utils5trace7details6RegionD2Ev.exit, label %43

43:                                               ; preds = %_ZN2cv12cpu_baselineL5cvt1_INS_6hfloatEtNS_12hal_baseline5v_regIfLi4EEEEEvPKT_mPT0_mNS_5Size_IiEE.exit
  invoke void @_ZN2cv5utils5trace7details6Region7destroyEv(ptr noundef nonnull align 8 dereferenceable(12) %9)
          to label %_ZN2cv5utils5trace7details6RegionD2Ev.exit unwind label %44

44:                                               ; preds = %43
  %45 = landingpad { ptr, i32 }
          catch ptr null
  %46 = extractvalue { ptr, i32 } %45, 0
  call void @__clang_call_terminate(ptr %46) #14
  unreachable

_ZN2cv5utils5trace7details6RegionD2Ev.exit:       ; preds = %_ZN2cv12cpu_baselineL5cvt1_INS_6hfloatEtNS_12hal_baseline5v_regIfLi4EEEEEvPKT_mPT0_mNS_5Size_IiEE.exit, %43
  ret void
}